	.section	__TEXT,__text,regular,pure_instructions
	.build_version macos, 15, 0	sdk_version 15, 5
	.globl	_main                           ; -- Begin function main
	.p2align	2
_main:                                  ; @main
Lfunc_begin0:
	.cfi_startproc
	.cfi_personality 155, ___gxx_personality_v0
	.cfi_lsda 16, Lexception0
; %bb.0:
	stp	x20, x19, [sp, #-32]!           ; 16-byte Folded Spill
	stp	x29, x30, [sp, #16]             ; 16-byte Folded Spill
	add	x29, sp, #16
	.cfi_def_cfa w29, 16
	.cfi_offset w30, -8
	.cfi_offset w29, -16
	.cfi_offset w19, -24
	.cfi_offset w20, -32
	mov	w0, #16                         ; =0x10
	bl	___cxa_allocate_exception
	mov	x19, x0
Ltmp0:
Lloh0:
	adrp	x1, l_.str@PAGE
Lloh1:
	add	x1, x1, l_.str@PAGEOFF
	bl	__ZNSt13runtime_errorC1EPKc
Ltmp1:
; %bb.1:
Lloh2:
	adrp	x1, __ZTISt13runtime_error@GOTPAGE
Lloh3:
	ldr	x1, [x1, __ZTISt13runtime_error@GOTPAGEOFF]
Lloh4:
	adrp	x2, __ZNSt13runtime_errorD1Ev@GOTPAGE
Lloh5:
	ldr	x2, [x2, __ZNSt13runtime_errorD1Ev@GOTPAGEOFF]
	mov	x0, x19
	bl	___cxa_throw
LBB0_2:
Ltmp2:
	mov	x20, x0
	mov	x0, x19
	bl	___cxa_free_exception
	mov	x0, x20
	bl	__Unwind_Resume
	.loh AdrpAdd	Lloh0, Lloh1
	.loh AdrpLdrGot	Lloh4, Lloh5
	.loh AdrpLdrGot	Lloh2, Lloh3
Lfunc_end0:
	.cfi_endproc
	.section	__TEXT,__gcc_except_tab
	.p2align	2, 0x0
GCC_except_table0:
Lexception0:
	.byte	255                             ; @LPStart Encoding = omit
	.byte	255                             ; @TType Encoding = omit
	.byte	1                               ; Call site Encoding = uleb128
	.uleb128 Lcst_end0-Lcst_begin0
Lcst_begin0:
	.uleb128 Lfunc_begin0-Lfunc_begin0      ; >> Call Site 1 <<
	.uleb128 Ltmp0-Lfunc_begin0             ;   Call between Lfunc_begin0 and Ltmp0
	.byte	0                               ;     has no landing pad
	.byte	0                               ;   On action: cleanup
	.uleb128 Ltmp0-Lfunc_begin0             ; >> Call Site 2 <<
	.uleb128 Ltmp1-Ltmp0                    ;   Call between Ltmp0 and Ltmp1
	.uleb128 Ltmp2-Lfunc_begin0             ;     jumps to Ltmp2
	.byte	0                               ;   On action: cleanup
	.uleb128 Ltmp1-Lfunc_begin0             ; >> Call Site 3 <<
	.uleb128 Lfunc_end0-Ltmp1               ;   Call between Ltmp1 and Lfunc_end0
	.byte	0                               ;     has no landing pad
	.byte	0                               ;   On action: cleanup
Lcst_end0:
	.p2align	2, 0x0
                                        ; -- End function
	.section	__TEXT,__cstring,cstring_literals
l_.str:                                 ; @.str
	.asciz	"Assertion failed"

.subsections_via_symbols
